; Function Attrs: mustprogress uwtable
define noundef nonnull ptr @_Z18pj_get_default_ctxv() local_unnamed_addr #0 personality ptr @__gxx_personality_v0 {
  %1 = load atomic i8, ptr @_ZGVZ18pj_get_default_ctxvE15default_context acquire, align 8
  %2 = icmp eq i8 %1, 0
  br i1 %2, label %3, label %8, !prof !4

3:                                                ; preds = %0
  %4 = tail call i32 @__cxa_guard_acquire(ptr nonnull @_ZGVZ18pj_get_default_ctxvE15default_context) #15
  %.not = icmp eq i32 %4, 0
  br i1 %.not, label %8, label %5

5:                                                ; preds = %3
  invoke void @_ZN6pj_ctx13createDefaultEv(ptr dead_on_unwind nonnull writable sret(%struct.pj_ctx) align 8 @_ZZ18pj_get_default_ctxvE15default_context)
          to label %6 unwind label %9

6:                                                ; preds = %5
  %7 = tail call i32 @__cxa_atexit(ptr nonnull @_ZN6pj_ctxD2Ev, ptr nonnull @_ZZ18pj_get_default_ctxvE15default_context, ptr nonnull @__dso_handle) #15
  tail call void @__cxa_guard_release(ptr nonnull @_ZGVZ18pj_get_default_ctxvE15default_context) #15
  br label %8

8:                                                ; preds = %6, %3, %0
  ret ptr @_ZZ18pj_get_default_ctxvE15default_context

9:                                                ; preds = %5
  %10 = landingpad { ptr, i32 }
          cleanup
  tail call void @__cxa_guard_abort(ptr nonnull @_ZGVZ18pj_get_default_ctxvE15default_context) #15
  resume { ptr, i32 } %10
}